; Function Attrs: mustprogress uwtable
define internal noundef zeroext i1 @"_ZNSt17_Function_handlerIFbPN3dap10SerializerEEZNS0_6TypeOfINS0_15EvaluateRequestEE15serializeFieldsEPNS0_15FieldSerializerEPKvE3$_0E9_M_invokeERKSt9_Any_dataOS2_"(ptr nocapture noundef nonnull readonly align 8 dereferenceable(16) %0, ptr nocapture noundef nonnull readonly align 8 dereferenceable(8) %1) #0 align 2 {
  %.val = load ptr, ptr %0, align 8
  %3 = getelementptr inbounds i8, ptr %0, i64 8
  %.val2 = load ptr, ptr %3, align 8
  %.val3 = load ptr, ptr %1, align 8
  %.val.val = load ptr, ptr %.val, align 8
  %4 = getelementptr i8, ptr %.val2, i64 32
  %.val2.val = load i64, ptr %4, align 8
  %5 = getelementptr i8, ptr %.val2, i64 40
  %.val2.val4 = load ptr, ptr %5, align 8
  %6 = getelementptr inbounds i8, ptr %.val.val, i64 %.val2.val
  %7 = load ptr, ptr %.val2.val4, align 8
  %8 = getelementptr inbounds i8, ptr %7, i64 72
  %9 = load ptr, ptr %8, align 8
  %10 = tail call noundef zeroext i1 %9(ptr noundef nonnull align 8 dereferenceable(8) %.val2.val4, ptr noundef %.val3, ptr noundef %6)
  ret i1 %10
}